target datalayout = "e-m:e-p270:32:32-p271:32:32-p272:64:64-i64:64-i128:128-f80:128-n8:16:32:64-S128"
target triple = "x86_64-pc-linux-gnu"

%"class.std::__cxx11::basic_string" = type { %"struct.std::__cxx11::basic_string<char>::_Alloc_hider", i64, %union.anon }
%"struct.std::__cxx11::basic_string<char>::_Alloc_hider" = type { ptr }
%union.anon = type { i64, [8 x i8] }
%"class.std::allocator" = type { i8 }
%struct.CvMat = type { i32, i32, ptr, i32, %union.anon.0, %union.anon.1, %union.anon.2 }
%union.anon.0 = type { ptr }
%union.anon.1 = type { i32 }
%union.anon.2 = type { i32 }
%struct._IplImage = type { i32, i32, i32, i32, i32, [4 x i8], [4 x i8], i32, i32, i32, i32, i32, ptr, ptr, ptr, ptr, i32, ptr, i32, [4 x i32], [4 x i32], ptr }
%struct.CvSize = type { i32, i32 }
%struct._IplROI = type { i32, i32, i32, i32, i32 }

@.str.1 = private unnamed_addr constant [118 x i8] c"generated/home/dtcxzyw/WorkSpace/Projects/compilers/llvm-opt-benchmark/bench/opencv/opencv/modules/core/src/array.cpp\00", align 1
@.str.38 = private unnamed_addr constant [34 x i8] c"Array should be CvMat or IplImage\00", align 1
@__func__.cvGetSize = private unnamed_addr constant [10 x i8] c"cvGetSize\00", align 1

; Function Attrs: mustprogress nounwind uwtable
define linkonce_odr hidden void @_ZNSt15__new_allocatorIcE10deallocateEPcm(ptr noundef nonnull align 1 dereferenceable(1) %0, ptr noundef %1, i64 noundef %2) #3 comdat align 2 {
  %4 = alloca ptr, align 8
  %5 = alloca ptr, align 8
  %6 = alloca i64, align 8
  store ptr %0, ptr %4, align 8, !tbaa !231
  store ptr %1, ptr %5, align 8, !tbaa !19
  store i64 %2, ptr %6, align 8, !tbaa !30
  %7 = load ptr, ptr %5, align 8, !tbaa !19
  call void @_ZdlPv(ptr noundef %7) #19
  ret void
}

; Function Attrs: mustprogress nounwind uwtable
define linkonce_odr hidden noundef ptr @_ZNSt19__ptr_traits_ptr_toIPKcS0_Lb0EE10pointer_toERS0_(ptr noundef nonnull align 1 dereferenceable(1) %0) #3 comdat align 2 {
  %2 = alloca ptr, align 8
  store ptr %0, ptr %2, align 8, !tbaa !19
  %3 = load ptr, ptr %2, align 8, !tbaa !19
  ret ptr %3
}

; Function Attrs: mustprogress uwtable
define linkonce_odr hidden void @_ZNSt16allocator_traitsISaIcEE10deallocateERS0_Pcm(ptr noundef nonnull align 1 dereferenceable(1) %0, ptr noundef %1, i64 noundef %2) #0 comdat align 2 {
  %4 = alloca ptr, align 8
  %5 = alloca ptr, align 8
  %6 = alloca i64, align 8
  store ptr %0, ptr %4, align 8, !tbaa !15
  store ptr %1, ptr %5, align 8, !tbaa !19
  store i64 %2, ptr %6, align 8, !tbaa !30
  %7 = load ptr, ptr %4, align 8, !tbaa !15
  %8 = load ptr, ptr %5, align 8, !tbaa !19
  %9 = load i64, ptr %6, align 8, !tbaa !30
  call void @_ZNSt15__new_allocatorIcE10deallocateEPcm(ptr noundef nonnull align 1 dereferenceable(1) %7, ptr noundef %8, i64 noundef %9)
  ret void
}

; Function Attrs: mustprogress nounwind uwtable
define available_externally noundef nonnull align 1 dereferenceable(1) ptr @_ZNSt7__cxx1112basic_stringIcSt11char_traitsIcESaIcEE16_M_get_allocatorEv(ptr noundef nonnull align 8 dereferenceable(32) %0) #3 align 2 {
  %2 = alloca ptr, align 8
  store ptr %0, ptr %2, align 8, !tbaa !17
  %3 = load ptr, ptr %2, align 8
  %4 = getelementptr inbounds nuw %"class.std::__cxx11::basic_string", ptr %3, i32 0, i32 0
  ret ptr %4
}

; Function Attrs: mustprogress nounwind uwtable
define available_externally noundef ptr @_ZNKSt7__cxx1112basic_stringIcSt11char_traitsIcESaIcEE13_M_local_dataEv(ptr noundef nonnull align 8 dereferenceable(32) %0) #3 align 2 {
  %2 = alloca ptr, align 8
  store ptr %0, ptr %2, align 8, !tbaa !17
  %3 = load ptr, ptr %2, align 8
  %4 = getelementptr inbounds nuw %"class.std::__cxx11::basic_string", ptr %3, i32 0, i32 2
  %5 = getelementptr inbounds [16 x i8], ptr %4, i64 0, i64 0
  %6 = call noundef ptr @_ZNSt19__ptr_traits_ptr_toIPKcS0_Lb0EE10pointer_toERS0_(ptr noundef nonnull align 1 dereferenceable(1) %5) #16
  ret ptr %6
}

; Function Attrs: mustprogress nounwind uwtable
define available_externally noundef ptr @_ZNKSt7__cxx1112basic_stringIcSt11char_traitsIcESaIcEE7_M_dataEv(ptr noundef nonnull align 8 dereferenceable(32) %0) #3 align 2 {
  %2 = alloca ptr, align 8
  store ptr %0, ptr %2, align 8, !tbaa !17
  %3 = load ptr, ptr %2, align 8
  %4 = getelementptr inbounds nuw %"class.std::__cxx11::basic_string", ptr %3, i32 0, i32 0
  %5 = getelementptr inbounds nuw %"struct.std::__cxx11::basic_string<char>::_Alloc_hider", ptr %4, i32 0, i32 0
  %6 = load ptr, ptr %5, align 8, !tbaa !236
  ret ptr %6
}

; Function Attrs: mustprogress nounwind uwtable
define available_externally void @_ZNSt7__cxx1112basic_stringIcSt11char_traitsIcESaIcEE10_M_destroyEm(ptr noundef nonnull align 8 dereferenceable(32) %0, i64 noundef %1) #3 align 2 personality ptr @__gxx_personality_v0 {
  %3 = alloca ptr, align 8
  %4 = alloca i64, align 8
  %5 = alloca ptr, align 8
  %6 = alloca i32, align 4
  store ptr %0, ptr %3, align 8, !tbaa !17
  store i64 %1, ptr %4, align 8, !tbaa !30
  %7 = load ptr, ptr %3, align 8
  %8 = invoke noundef nonnull align 1 dereferenceable(1) ptr @_ZNSt7__cxx1112basic_stringIcSt11char_traitsIcESaIcEE16_M_get_allocatorEv(ptr noundef nonnull align 8 dereferenceable(32) %7)
          to label %9 unwind label %14

9:                                                ; preds = %2
  %10 = call noundef ptr @_ZNKSt7__cxx1112basic_stringIcSt11char_traitsIcESaIcEE7_M_dataEv(ptr noundef nonnull align 8 dereferenceable(32) %7)
  %11 = load i64, ptr %4, align 8, !tbaa !30
  %12 = add i64 %11, 1
  invoke void @_ZNSt16allocator_traitsISaIcEE10deallocateERS0_Pcm(ptr noundef nonnull align 1 dereferenceable(1) %8, ptr noundef %10, i64 noundef %12)
          to label %13 unwind label %14

13:                                               ; preds = %9
  ret void

14:                                               ; preds = %9, %2
  %15 = landingpad { ptr, i32 }
          filter [0 x ptr] zeroinitializer
  %16 = extractvalue { ptr, i32 } %15, 0
  store ptr %16, ptr %5, align 8
  %17 = extractvalue { ptr, i32 } %15, 1
  store i32 %17, ptr %6, align 4
  br label %18

18:                                               ; preds = %14
  %19 = load ptr, ptr %5, align 8
  call void @__cxa_call_unexpected(ptr %19) #17
  unreachable
}

; Function Attrs: mustprogress uwtable
define available_externally noundef zeroext i1 @_ZNKSt7__cxx1112basic_stringIcSt11char_traitsIcESaIcEE11_M_is_localEv(ptr noundef nonnull align 8 dereferenceable(32) %0) #0 align 2 {
  %2 = alloca i1, align 1
  %3 = alloca ptr, align 8
  store ptr %0, ptr %3, align 8, !tbaa !17
  %4 = load ptr, ptr %3, align 8
  %5 = call noundef ptr @_ZNKSt7__cxx1112basic_stringIcSt11char_traitsIcESaIcEE7_M_dataEv(ptr noundef nonnull align 8 dereferenceable(32) %4)
  %6 = call noundef ptr @_ZNKSt7__cxx1112basic_stringIcSt11char_traitsIcESaIcEE13_M_local_dataEv(ptr noundef nonnull align 8 dereferenceable(32) %4)
  %7 = icmp eq ptr %5, %6
  br i1 %7, label %8, label %14

8:                                                ; preds = %1
  %9 = getelementptr inbounds nuw %"class.std::__cxx11::basic_string", ptr %4, i32 0, i32 1
  %10 = load i64, ptr %9, align 8, !tbaa !233
  %11 = icmp ugt i64 %10, 15
  br i1 %11, label %12, label %13

12:                                               ; preds = %8
  unreachable

13:                                               ; preds = %8
  store i1 true, ptr %2, align 1
  br label %15

14:                                               ; preds = %1
  store i1 false, ptr %2, align 1
  br label %15

15:                                               ; preds = %14, %13
  %16 = load i1, ptr %2, align 1
  ret i1 %16
}

; Function Attrs: noinline noreturn nounwind uwtable
define linkonce_odr hidden void @__clang_call_terminate(ptr noundef %0) #13 comdat {
  %2 = call ptr @__cxa_begin_catch(ptr %0) #16
  call void @_ZSt9terminatev() #18
  unreachable
}

; Function Attrs: mustprogress uwtable
define available_externally void @_ZNSt7__cxx1112basic_stringIcSt11char_traitsIcESaIcEE10_M_disposeEv(ptr noundef nonnull align 8 dereferenceable(32) %0) #0 align 2 {
  %2 = alloca ptr, align 8
  store ptr %0, ptr %2, align 8, !tbaa !17
  %3 = load ptr, ptr %2, align 8
  %4 = call noundef zeroext i1 @_ZNKSt7__cxx1112basic_stringIcSt11char_traitsIcESaIcEE11_M_is_localEv(ptr noundef nonnull align 8 dereferenceable(32) %3)
  br i1 %4, label %8, label %5

5:                                                ; preds = %1
  %6 = getelementptr inbounds nuw %"class.std::__cxx11::basic_string", ptr %3, i32 0, i32 2
  %7 = load i64, ptr %6, align 8, !tbaa !27
  call void @_ZNSt7__cxx1112basic_stringIcSt11char_traitsIcESaIcEE10_M_destroyEm(ptr noundef nonnull align 8 dereferenceable(32) %3, i64 noundef %7) #16
  br label %8

8:                                                ; preds = %5, %1
  ret void
}

; Function Attrs: mustprogress nounwind uwtable
define linkonce_odr hidden void @_ZNSt15__new_allocatorIcEC2Ev(ptr noundef nonnull align 1 dereferenceable(1) %0) unnamed_addr #3 comdat align 2 {
  %2 = alloca ptr, align 8
  store ptr %0, ptr %2, align 8, !tbaa !231
  ret void
}

; Function Attrs: mustprogress nounwind uwtable
define linkonce_odr hidden void @_ZNSt15__new_allocatorIcED2Ev(ptr noundef nonnull align 1 dereferenceable(1) %0) unnamed_addr #3 comdat align 2 {
  %2 = alloca ptr, align 8
  store ptr %0, ptr %2, align 8, !tbaa !231
  ret void
}

; Function Attrs: mustprogress nounwind uwtable
define available_externally void @_ZNSt7__cxx1112basic_stringIcSt11char_traitsIcESaIcEED2Ev(ptr noundef nonnull align 8 dereferenceable(32) %0) unnamed_addr #3 align 2 personality ptr @__gxx_personality_v0 {
  %2 = alloca ptr, align 8
  store ptr %0, ptr %2, align 8, !tbaa !17
  %3 = load ptr, ptr %2, align 8
  invoke void @_ZNSt7__cxx1112basic_stringIcSt11char_traitsIcESaIcEE10_M_disposeEv(ptr noundef nonnull align 8 dereferenceable(32) %3)
          to label %4 unwind label %6

4:                                                ; preds = %1
  %5 = getelementptr inbounds nuw %"class.std::__cxx11::basic_string", ptr %3, i32 0, i32 0
  call void @_ZNSt15__new_allocatorIcED2Ev(ptr noundef nonnull align 8 dereferenceable(8) %5) #16
  ret void

6:                                                ; preds = %1
  %7 = landingpad { ptr, i32 }
          catch ptr null
  %8 = extractvalue { ptr, i32 } %7, 0
  call void @__clang_call_terminate(ptr %8) #18
  unreachable
}

; Function Attrs: mustprogress nounwind uwtable
define available_externally void @_ZNSaIcEC2Ev(ptr noundef nonnull align 1 dereferenceable(1) %0) unnamed_addr #3 align 2 {
  %2 = alloca ptr, align 8
  store ptr %0, ptr %2, align 8, !tbaa !15
  %3 = load ptr, ptr %2, align 8
  call void @_ZNSt15__new_allocatorIcEC2Ev(ptr noundef nonnull align 1 dereferenceable(1) %3) #16
  ret void
}

; Function Attrs: mustprogress uwtable
define i64 @cvGetSize(ptr noundef %0) #0 personality ptr @__gxx_personality_v0 {
  %2 = alloca %struct.CvSize, align 4
  %3 = alloca ptr, align 8
  %4 = alloca ptr, align 8
  %5 = alloca ptr, align 8
  %6 = alloca %"class.std::__cxx11::basic_string", align 8
  %7 = alloca %"class.std::allocator", align 1
  %8 = alloca ptr, align 8
  %9 = alloca i32, align 4
  store ptr %0, ptr %3, align 8, !tbaa !3
  call void @llvm.memset.p0.i64(ptr align 4 %2, i8 0, i64 8, i1 false)
  %10 = load ptr, ptr %3, align 8, !tbaa !3
  %11 = icmp ne ptr %10, null
  br i1 %11, label %12, label %38

12:                                               ; preds = %1
  %13 = load ptr, ptr %3, align 8, !tbaa !3
  %14 = getelementptr inbounds nuw %struct.CvMat, ptr %13, i32 0, i32 0
  %15 = load i32, ptr %14, align 8, !tbaa !26
  %16 = and i32 %15, -65536
  %17 = icmp eq i32 %16, 1111621632
  br i1 %17, label %18, label %38

18:                                               ; preds = %12
  %19 = load ptr, ptr %3, align 8, !tbaa !3
  %20 = getelementptr inbounds nuw %struct.CvMat, ptr %19, i32 0, i32 6
  %21 = load i32, ptr %20, align 4, !tbaa !27
  %22 = icmp sge i32 %21, 0
  br i1 %22, label %23, label %38

23:                                               ; preds = %18
  %24 = load ptr, ptr %3, align 8, !tbaa !3
  %25 = getelementptr inbounds nuw %struct.CvMat, ptr %24, i32 0, i32 5
  %26 = load i32, ptr %25, align 8, !tbaa !27
  %27 = icmp sge i32 %26, 0
  br i1 %27, label %28, label %38

28:                                               ; preds = %23
  call void @llvm.lifetime.start.p0(i64 8, ptr %4) #16
  %29 = load ptr, ptr %3, align 8, !tbaa !3
  store ptr %29, ptr %4, align 8, !tbaa !21
  %30 = load ptr, ptr %4, align 8, !tbaa !21
  %31 = getelementptr inbounds nuw %struct.CvMat, ptr %30, i32 0, i32 6
  %32 = load i32, ptr %31, align 4, !tbaa !27
  %33 = getelementptr inbounds nuw %struct.CvSize, ptr %2, i32 0, i32 0
  store i32 %32, ptr %33, align 4, !tbaa !89
  %34 = load ptr, ptr %4, align 8, !tbaa !21
  %35 = getelementptr inbounds nuw %struct.CvMat, ptr %34, i32 0, i32 5
  %36 = load i32, ptr %35, align 8, !tbaa !27
  %37 = getelementptr inbounds nuw %struct.CvSize, ptr %2, i32 0, i32 1
  store i32 %36, ptr %37, align 4, !tbaa !90
  call void @llvm.lifetime.end.p0(i64 8, ptr %4) #16
  br label %89

38:                                               ; preds = %23, %18, %12, %1
  %39 = load ptr, ptr %3, align 8, !tbaa !3
  %40 = icmp ne ptr %39, null
  br i1 %40, label %41, label %76

41:                                               ; preds = %38
  %42 = load ptr, ptr %3, align 8, !tbaa !3
  %43 = getelementptr inbounds nuw %struct._IplImage, ptr %42, i32 0, i32 0
  %44 = load i32, ptr %43, align 8, !tbaa !32
  %45 = sext i32 %44 to i64
  %46 = icmp eq i64 %45, 144
  br i1 %46, label %47, label %76

47:                                               ; preds = %41
  call void @llvm.lifetime.start.p0(i64 8, ptr %5) #16
  %48 = load ptr, ptr %3, align 8, !tbaa !3
  store ptr %48, ptr %5, align 8, !tbaa !37
  %49 = load ptr, ptr %5, align 8, !tbaa !37
  %50 = getelementptr inbounds nuw %struct._IplImage, ptr %49, i32 0, i32 12
  %51 = load ptr, ptr %50, align 8, !tbaa !133
  %52 = icmp ne ptr %51, null
  br i1 %52, label %53, label %66

53:                                               ; preds = %47
  %54 = load ptr, ptr %5, align 8, !tbaa !37
  %55 = getelementptr inbounds nuw %struct._IplImage, ptr %54, i32 0, i32 12
  %56 = load ptr, ptr %55, align 8, !tbaa !133
  %57 = getelementptr inbounds nuw %struct._IplROI, ptr %56, i32 0, i32 3
  %58 = load i32, ptr %57, align 4, !tbaa !134
  %59 = getelementptr inbounds nuw %struct.CvSize, ptr %2, i32 0, i32 0
  store i32 %58, ptr %59, align 4, !tbaa !89
  %60 = load ptr, ptr %5, align 8, !tbaa !37
  %61 = getelementptr inbounds nuw %struct._IplImage, ptr %60, i32 0, i32 12
  %62 = load ptr, ptr %61, align 8, !tbaa !133
  %63 = getelementptr inbounds nuw %struct._IplROI, ptr %62, i32 0, i32 4
  %64 = load i32, ptr %63, align 4, !tbaa !136
  %65 = getelementptr inbounds nuw %struct.CvSize, ptr %2, i32 0, i32 1
  store i32 %64, ptr %65, align 4, !tbaa !90
  br label %75

66:                                               ; preds = %47
  %67 = load ptr, ptr %5, align 8, !tbaa !37
  %68 = getelementptr inbounds nuw %struct._IplImage, ptr %67, i32 0, i32 10
  %69 = load i32, ptr %68, align 8, !tbaa !44
  %70 = getelementptr inbounds nuw %struct.CvSize, ptr %2, i32 0, i32 0
  store i32 %69, ptr %70, align 4, !tbaa !89
  %71 = load ptr, ptr %5, align 8, !tbaa !37
  %72 = getelementptr inbounds nuw %struct._IplImage, ptr %71, i32 0, i32 11
  %73 = load i32, ptr %72, align 4, !tbaa !40
  %74 = getelementptr inbounds nuw %struct.CvSize, ptr %2, i32 0, i32 1
  store i32 %73, ptr %74, align 4, !tbaa !90
  br label %75

75:                                               ; preds = %66, %53
  call void @llvm.lifetime.end.p0(i64 8, ptr %5) #16
  br label %88

76:                                               ; preds = %41, %38
  call void @llvm.lifetime.start.p0(i64 32, ptr %6) #16
  call void @llvm.lifetime.start.p0(i64 1, ptr %7) #16
  call void @_ZNSaIcEC2Ev(ptr noundef nonnull align 1 dereferenceable(1) %7) #16
  invoke void @_ZNSt7__cxx1112basic_stringIcSt11char_traitsIcESaIcEEC2EPKcRKS3_(ptr noundef nonnull align 8 dereferenceable(32) %6, ptr noundef @.str.38, ptr noundef nonnull align 1 dereferenceable(1) %7)
          to label %77 unwind label %79

77:                                               ; preds = %76
  invoke void @_ZN2cv5errorEiRKNSt7__cxx1112basic_stringIcSt11char_traitsIcESaIcEEEPKcS9_i(i32 noundef -5, ptr noundef nonnull align 8 dereferenceable(32) %6, ptr noundef @__func__.cvGetSize, ptr noundef @.str.1, i32 noundef 1248) #17
          to label %78 unwind label %83

78:                                               ; preds = %77
  unreachable

79:                                               ; preds = %76
  %80 = landingpad { ptr, i32 }
          cleanup
  %81 = extractvalue { ptr, i32 } %80, 0
  store ptr %81, ptr %8, align 8
  %82 = extractvalue { ptr, i32 } %80, 1
  store i32 %82, ptr %9, align 4
  br label %87

83:                                               ; preds = %77
  %84 = landingpad { ptr, i32 }
          cleanup
  %85 = extractvalue { ptr, i32 } %84, 0
  store ptr %85, ptr %8, align 8
  %86 = extractvalue { ptr, i32 } %84, 1
  store i32 %86, ptr %9, align 4
  call void @_ZNSt7__cxx1112basic_stringIcSt11char_traitsIcESaIcEED2Ev(ptr noundef nonnull align 8 dereferenceable(32) %6) #16
  br label %87

87:                                               ; preds = %83, %79
  call void @_ZNSt15__new_allocatorIcED2Ev(ptr noundef nonnull align 1 dereferenceable(1) %7) #16
  call void @llvm.lifetime.end.p0(i64 1, ptr %7) #16
  call void @llvm.lifetime.end.p0(i64 32, ptr %6) #16
  br label %91

88:                                               ; preds = %75
  br label %89

89:                                               ; preds = %88, %28
  %90 = load i64, ptr %2, align 4
  ret i64 %90

91:                                               ; preds = %87
  %92 = load ptr, ptr %8, align 8
  %93 = load i32, ptr %9, align 4
  %94 = insertvalue { ptr, i32 } poison, ptr %92, 0
  %95 = insertvalue { ptr, i32 } %94, i32 %93, 1
  resume { ptr, i32 } %95
}