; Function Attrs: mustprogress uwtable
define i64 @cvGetSize(ptr noundef readonly %0) local_unnamed_addr #0 personality ptr @__gxx_personality_v0 {
  %2 = alloca %"class.std::__cxx11::basic_string", align 8
  %3 = alloca %"class.std::allocator", align 1
  %.not = icmp eq ptr %0, null
  br i1 %.not, label %.critedge, label %4

4:                                                ; preds = %1
  %5 = load i32, ptr %0, align 8, !tbaa !22
  %6 = and i32 %5, -65536
  %7 = icmp eq i32 %6, 1111621632
  br i1 %7, label %8, label %16

8:                                                ; preds = %4
  %9 = getelementptr inbounds nuw i8, ptr %0, i64 36
  %10 = load i32, ptr %9, align 4, !tbaa !23
  %11 = icmp sgt i32 %10, -1
  br i1 %11, label %12, label %.critedge

12:                                               ; preds = %8
  %13 = getelementptr inbounds nuw i8, ptr %0, i64 32
  %14 = load i32, ptr %13, align 8, !tbaa !23
  %15 = icmp sgt i32 %14, -1
  br i1 %15, label %34, label %.critedge

16:                                               ; preds = %4
  %17 = icmp eq i32 %5, 144
  br i1 %17, label %18, label %.critedge

18:                                               ; preds = %16
  %19 = getelementptr inbounds nuw i8, ptr %0, i64 48
  %20 = load ptr, ptr %19, align 8, !tbaa !110
  %.not22 = icmp eq ptr %20, null
  %21 = getelementptr inbounds nuw i8, ptr %20, i64 12
  %22 = getelementptr inbounds nuw i8, ptr %20, i64 16
  %23 = getelementptr inbounds nuw i8, ptr %0, i64 40
  %24 = getelementptr inbounds nuw i8, ptr %0, i64 44
  %.sroa.5.1.in = select i1 %.not22, ptr %24, ptr %22
  %.sroa.0.1.in = select i1 %.not22, ptr %23, ptr %21
  %.sroa.0.1 = load i32, ptr %.sroa.0.1.in, align 4, !tbaa !26
  %.sroa.5.1 = load i32, ptr %.sroa.5.1.in, align 4, !tbaa !26
  br label %34

.critedge:                                        ; preds = %12, %8, %1, %16
  call void @llvm.lifetime.start.p0(i64 32, ptr nonnull %2) #12
  call void @llvm.lifetime.start.p0(i64 1, ptr nonnull %3) #12
  call void @_ZNSt7__cxx1112basic_stringIcSt11char_traitsIcESaIcEEC2EPKcRKS3_(ptr noundef nonnull align 8 dereferenceable(32) %2, ptr noundef nonnull @.str.38, ptr noundef nonnull align 1 dereferenceable(1) %3)
  invoke void @_ZN2cv5errorEiRKNSt7__cxx1112basic_stringIcSt11char_traitsIcESaIcEEEPKcS9_i(i32 noundef -5, ptr noundef nonnull align 8 dereferenceable(32) %2, ptr noundef nonnull @__func__.cvGetSize, ptr noundef nonnull @.str.1, i32 noundef 1248) #13
          to label %25 unwind label %26

25:                                               ; preds = %.critedge
  unreachable

26:                                               ; preds = %.critedge
  %27 = landingpad { ptr, i32 }
          cleanup
  %28 = load ptr, ptr %2, align 8, !tbaa !3
  %29 = getelementptr inbounds nuw i8, ptr %2, i64 16
  %30 = icmp eq ptr %28, %29
  br i1 %30, label %_ZNKSt7__cxx1112basic_stringIcSt11char_traitsIcESaIcEE11_M_is_localEv.exit.thread.i.i, label %_ZNKSt7__cxx1112basic_stringIcSt11char_traitsIcESaIcEE11_M_is_localEv.exit.i.i

_ZNKSt7__cxx1112basic_stringIcSt11char_traitsIcESaIcEE11_M_is_localEv.exit.thread.i.i: ; preds = %26
  %31 = getelementptr inbounds nuw i8, ptr %2, i64 8
  %32 = load i64, ptr %31, align 8, !tbaa !11
  %33 = icmp ult i64 %32, 16
  call void @llvm.assume(i1 %33)
  br label %_ZNSt7__cxx1112basic_stringIcSt11char_traitsIcESaIcEED2Ev.exit

_ZNKSt7__cxx1112basic_stringIcSt11char_traitsIcESaIcEE11_M_is_localEv.exit.i.i: ; preds = %26
  call void @_ZdlPv(ptr noundef %28) #14
  br label %_ZNSt7__cxx1112basic_stringIcSt11char_traitsIcESaIcEED2Ev.exit

_ZNSt7__cxx1112basic_stringIcSt11char_traitsIcESaIcEED2Ev.exit: ; preds = %_ZNKSt7__cxx1112basic_stringIcSt11char_traitsIcESaIcEE11_M_is_localEv.exit.i.i, %_ZNKSt7__cxx1112basic_stringIcSt11char_traitsIcESaIcEE11_M_is_localEv.exit.thread.i.i
  call void @llvm.lifetime.end.p0(i64 1, ptr nonnull %3) #12
  call void @llvm.lifetime.end.p0(i64 32, ptr nonnull %2) #12
  resume { ptr, i32 } %27

34:                                               ; preds = %12, %18
  %.sroa.5.0 = phi i32 [ %.sroa.5.1, %18 ], [ %14, %12 ]
  %.sroa.0.0 = phi i32 [ %.sroa.0.1, %18 ], [ %10, %12 ]
  %.sroa.5.0.insert.ext = zext i32 %.sroa.5.0 to i64
  %.sroa.5.0.insert.shift = shl nuw i64 %.sroa.5.0.insert.ext, 32
  %.sroa.0.0.insert.ext = zext i32 %.sroa.0.0 to i64
  %.sroa.0.0.insert.insert = or disjoint i64 %.sroa.5.0.insert.shift, %.sroa.0.0.insert.ext
  ret i64 %.sroa.0.0.insert.insert
}